; Function Attrs: mustprogress nounwind uwtable
define internal void @_ZN12_GLOBAL__N_157IntSpanOrderComparisonTest_SpanOfMutableAndContainer_TestD0Ev(ptr noundef nonnull align 8 dereferenceable(168) initializes((0, 8)) %0) unnamed_addr #12 align 2 personality ptr @__gxx_personality_v0 {
  store ptr getelementptr inbounds nuw inrange(-16, 48) (i8, ptr @_ZTVN12_GLOBAL__N_126IntSpanOrderComparisonTestE, i64 16), ptr %0, align 8, !tbaa !4
  %2 = getelementptr inbounds nuw i8, ptr %0, i64 80
  %3 = load ptr, ptr %2, align 8, !tbaa !1068
  %.not.i.i.i.i = icmp eq ptr %3, null
  br i1 %.not.i.i.i.i, label %_ZNSt6vectorIiSaIiEED2Ev.exit.i, label %4

4:                                                ; preds = %1
  %5 = getelementptr inbounds nuw i8, ptr %0, i64 96
  %6 = load ptr, ptr %5, align 8, !tbaa !1070
  %7 = ptrtoint ptr %6 to i64
  %8 = ptrtoint ptr %3 to i64
  %9 = sub i64 %7, %8
  tail call void @_ZdlPvm(ptr noundef nonnull %3, i64 noundef %9) #30
  br label %_ZNSt6vectorIiSaIiEED2Ev.exit.i

_ZNSt6vectorIiSaIiEED2Ev.exit.i:                  ; preds = %4, %1
  %10 = getelementptr inbounds nuw i8, ptr %0, i64 56
  %11 = load ptr, ptr %10, align 8, !tbaa !1068
  %.not.i.i.i1.i = icmp eq ptr %11, null
  br i1 %.not.i.i.i1.i, label %_ZN12_GLOBAL__N_126IntSpanOrderComparisonTestD2Ev.exit, label %12

12:                                               ; preds = %_ZNSt6vectorIiSaIiEED2Ev.exit.i
  %13 = getelementptr inbounds nuw i8, ptr %0, i64 72
  %14 = load ptr, ptr %13, align 8, !tbaa !1070
  %15 = ptrtoint ptr %14 to i64
  %16 = ptrtoint ptr %11 to i64
  %17 = sub i64 %15, %16
  tail call void @_ZdlPvm(ptr noundef nonnull %11, i64 noundef %17) #30
  br label %_ZN12_GLOBAL__N_126IntSpanOrderComparisonTestD2Ev.exit

_ZN12_GLOBAL__N_126IntSpanOrderComparisonTestD2Ev.exit: ; preds = %_ZNSt6vectorIiSaIiEED2Ev.exit.i, %12
  tail call void @_ZN7testing4TestD2Ev(ptr noundef nonnull align 8 dereferenceable(168) %0) #28
  tail call void @_ZdlPvm(ptr noundef nonnull %0, i64 noundef 168) #30
  ret void
}